Certificate:
    Data:
        Version: 3 (0x2)
        Serial Number:
            d2:57:74:01:f8:52:52:c2
        Signature Algorithm: md5WithRSAEncryption
        Issuer: C=US, ST=Oregon, L=Portland, O=yaSSL, CN=www.yassl.com/emailAddress=info@yassl.com
        Validity
            Not Before: Oct 15 23:48:32 2007 GMT
            Not After : Jul 11 23:48:32 2010 GMT
        Subject: C=US, ST=Oregon, L=Portland, O=yaSSL, CN=www.yassl.com/emailAddress=info@yassl.com
        Subject Public Key Info:
            Public Key Algorithm: rsaEncryption
            RSA Public Key: (512 bit)
                Modulus (512 bit):
                    00:bd:51:4a:14:fd:6a:19:84:0c:33:38:fc:27:32:
                    9c:97:0b:fc:a4:18:60:69:4e:d9:d8:78:50:0b:e9:
                    20:5d:d6:1d:70:1c:0c:24:9f:23:82:cc:3a:01:d5:
                    97:17:b2:73:6c:86:cf:b5:f1:e5:ce:68:0c:d9:a2:
                    12:39:7c:f2:53
                Exponent: 65537 (0x10001)
        X509v3 extensions:
            X509v3 Subject Key Identifier: 
                5C:F7:29:21:69:7A:09:78:9E:7B:CD:53:42:02:EC:CE:29:0D:11:DF
            X509v3 Authority Key Identifier: 
                keyid:5C:F7:29:21:69:7A:09:78:9E:7B:CD:53:42:02:EC:CE:29:0D:11:DF
                DirName:/C=US/ST=Oregon/L=Portland/O=yaSSL/CN=www.yassl.com/emailAddress=info@yassl.com
                serial:D2:57:74:01:F8:52:52:C2

            X509v3 Basic Constraints: 
                CA:TRUE
    Signature Algorithm: md5WithRSAEncryption
        47:47:1d:e0:a3:05:d9:65:b5:8c:b2:e3:f8:77:9a:c9:e3:a6:
        8d:04:87:28:22:17:7f:ae:30:c3:bc:0d:88:68:6d:ea:fe:bf:
        d8:c7:1f:4f:54:28:af:79:2b:9f:ef:bc:c6:3c:96:4a:a9:0d:
        ad:c0:d2:1c:68:c4:2e:58:14:93
-----BEGIN CERTIFICATE-----
MIICxzCCAnGgAwIBAgIJANJXdAH4UlLCMA0GCSqGSIb3DQEBBAUAMHgxCzAJBgNV
BAYTAlVTMQ8wDQYDVQQIEwZPcmVnb24xETAPBgNVBAcTCFBvcnRsYW5kMQ4wDAYD
VQQKEwV5YVNTTDEWMBQGA1UEAxMNd3d3Lnlhc3NsLmNvbTEdMBsGCSqGSIb3DQEJ
ARYOaW5mb0B5YXNzbC5jb20wHhcNMDcxMDE1MjM0ODMyWhcNMTAwNzExMjM0ODMy
WjB4MQswCQYDVQQGEwJVUzEPMA0GA1UECBMGT3JlZ29uMREwDwYDVQQHEwhQb3J0
bGFuZDEOMAwGA1UEChMFeWFTU0wxFjAUBgNVBAMTDXd3dy55YXNzbC5jb20xHTAb
BgkqhkiG9w0BCQEWDmluZm9AeWFzc2wuY29tMFwwDQYJKoZIhvcNAQEBBQADSwAw
SAJBAL1RShT9ahmEDDM4/CcynJcL/KQYYGlO2dh4UAvpIF3WHXAcDCSfI4LMOgHV
lxeyc2yGz7Xx5c5oDNmiEjl88lMCAwEAAaOB3TCB2jAdBgNVHQ4EFgQUXPcpIWl6
CXiee81TQgLszikNEd8wgaoGA1UdIwSBojCBn4AUXPcpIWl6CXiee81TQgLszikN
Ed+hfKR6MHgxCzAJBgNVBAYTAlVTMQ8wDQYDVQQIEwZPcmVnb24xETAPBgNVBAcT
CFBvcnRsYW5kMQ4wDAYDVQQKEwV5YVNTTDEWMBQGA1UEAxMNd3d3Lnlhc3NsLmNv
bTEdMBsGCSqGSIb3DQEJARYOaW5mb0B5YXNzbC5jb22CCQDSV3QB+FJSwjAMBgNV
HRMEBTADAQH/MA0GCSqGSIb3DQEBBAUAA0EAR0cd4KMF2WW1jLLj+HeayeOmjQSH
KCIXf64ww7wNiGht6v6/2McfT1Qor3krn++8xjyWSqkNrcDSHGjELlgUkw==
-----END CERTIFICATE-----
