Certificate:
    Data:
        Version: 3 (0x2)
        Serial Number:
            bb:d1:5d:07:eb:66:8a:76
        Signature Algorithm: dsaWithSHA1
        Issuer: C=US, ST=Oregon, L=Portland, O=yaSSL DSA, CN=www.yassl-DSA.com/emailAddress=info@yassl.com
        Validity
            Not Before: Oct 16 00:47:34 2007 GMT
            Not After : Jul 12 00:47:34 2010 GMT
        Subject: C=US, ST=Oregon, L=Portland, O=yaSSL DSA, CN=www.yassl-DSA.com/emailAddress=info@yassl.com
        Subject Public Key Info:
            Public Key Algorithm: dsaEncryption
            DSA Public Key:
                pub: 
                    04:84:a0:26:31:72:0c:e8:4f:5d:53:17:62:b1:80:
                    ca:c0:16:5f:c3:1e:ea:c5:d9:98:38:f9:be:56:53:
                    47:68:ce:08:22:57:1c:bb:0d:77:91:cf:5b:36:ed:
                    f3:24:82:90:8a:cd:90:7c:db:77:f9:17:2d:73:73:
                    ef:bb:b9:82
                P:   
                    00:99:29:69:80:c9:3c:98:68:45:a9:82:fe:67:eb:
                    95:88:c5:b4:0c:d6:26:45:95:19:2c:a0:20:5b:7e:
                    df:69:e9:dc:c3:0f:f3:61:0a:25:9b:f2:21:01:6a:
                    cd:aa:8c:37:e7:ca:66:db:56:f4:0f:7d:7a:d1:18:
                    b9:42:fd:1b:11
                Q:   
                    00:ad:25:29:ab:0a:9f:09:1c:c1:ad:03:20:76:7f:
                    a6:b7:dd:4d:03:09
                G:   
                    12:88:99:da:e7:d0:0b:93:9b:e6:ee:3c:21:7f:9c:
                    b3:b4:8d:a5:8c:e2:37:80:3f:17:d1:81:4f:bd:f0:
                    71:b6:32:08:54:dd:bf:01:e2:b3:77:06:64:75:8a:
                    04:d6:79:39:b1:02:03:03:c6:06:74:e5:90:05:0a:
                    10:46:19:31
        X509v3 extensions:
            X509v3 Subject Key Identifier: 
                BE:F9:8C:5D:D6:1C:B4:EE:81:DD:36:56:0A:21:E4:61:44:73:E9:E2
            X509v3 Authority Key Identifier: 
                keyid:BE:F9:8C:5D:D6:1C:B4:EE:81:DD:36:56:0A:21:E4:61:44:73:E9:E2
                DirName:/C=US/ST=Oregon/L=Portland/O=yaSSL DSA/CN=www.yassl-DSA.com/emailAddress=info@yassl.com
                serial:BB:D1:5D:07:EB:66:8A:76

            X509v3 Basic Constraints: 
                CA:TRUE
    Signature Algorithm: dsaWithSHA1
        30:2d:02:14:77:5d:00:28:6a:c1:b1:e8:8c:90:b3:20:d5:c2:
        03:b0:6a:47:1e:f1:02:15:00:a1:39:14:75:7e:46:bb:e9:de:
        59:4b:51:5e:5b:85:72:72:cc:d2:2d
-----BEGIN CERTIFICATE-----
MIIDYDCCAx+gAwIBAgIJALvRXQfrZop2MAkGByqGSM44BAMwgYAxCzAJBgNVBAYT
AlVTMQ8wDQYDVQQIEwZPcmVnb24xETAPBgNVBAcTCFBvcnRsYW5kMRIwEAYDVQQK
Ewl5YVNTTCBEU0ExGjAYBgNVBAMTEXd3dy55YXNzbC1EU0EuY29tMR0wGwYJKoZI
hvcNAQkBFg5pbmZvQHlhc3NsLmNvbTAeFw0wNzEwMTYwMDQ3MzRaFw0xMDA3MTIw
MDQ3MzRaMIGAMQswCQYDVQQGEwJVUzEPMA0GA1UECBMGT3JlZ29uMREwDwYDVQQH
EwhQb3J0bGFuZDESMBAGA1UEChMJeWFTU0wgRFNBMRowGAYDVQQDExF3d3cueWFz
c2wtRFNBLmNvbTEdMBsGCSqGSIb3DQEJARYOaW5mb0B5YXNzbC5jb20wgfAwgagG
ByqGSM44BAEwgZwCQQCZKWmAyTyYaEWpgv5n65WIxbQM1iZFlRksoCBbft9p6dzD
D/NhCiWb8iEBas2qjDfnymbbVvQPfXrRGLlC/RsRAhUArSUpqwqfCRzBrQMgdn+m
t91NAwkCQBKImdrn0AuTm+buPCF/nLO0jaWM4jeAPxfRgU+98HG2MghU3b8B4rN3
BmR1igTWeTmxAgMDxgZ05ZAFChBGGTEDQwACQASEoCYxcgzoT11TF2KxgMrAFl/D
HurF2Zg4+b5WU0dozggiVxy7DXeRz1s27fMkgpCKzZB823f5Fy1zc++7uYKjgegw
geUwHQYDVR0OBBYEFL75jF3WHLTugd02Vgoh5GFEc+niMIG1BgNVHSMEga0wgaqA
FL75jF3WHLTugd02Vgoh5GFEc+nioYGGpIGDMIGAMQswCQYDVQQGEwJVUzEPMA0G
A1UECBMGT3JlZ29uMREwDwYDVQQHEwhQb3J0bGFuZDESMBAGA1UEChMJeWFTU0wg
RFNBMRowGAYDVQQDExF3d3cueWFzc2wtRFNBLmNvbTEdMBsGCSqGSIb3DQEJARYO
aW5mb0B5YXNzbC5jb22CCQC70V0H62aKdjAMBgNVHRMEBTADAQH/MAkGByqGSM44
BAMDMAAwLQIUd10AKGrBseiMkLMg1cIDsGpHHvECFQChORR1fka76d5ZS1FeW4Vy
cszSLQ==
-----END CERTIFICATE-----
