Certificate:
    Data:
        Version: 1 (0x0)
        Serial Number: 1 (0x1)
        Signature Algorithm: md5WithRSAEncryption
        Issuer: C=US, ST=Oregon, L=Portland, O=sawtooth, CN=www.sawtooth-consulting.com/emailAddress=info@yassl.com
        Validity
            Not Before: Oct 16 00:42:56 2007 GMT
            Not After : Jul 12 00:42:56 2010 GMT
        Subject: C=US, ST=Oregon, L=Portland, O=taoSoftDev, CN=www.taosoftdev.com/emailAddress=info@yassl.com
        Subject Public Key Info:
            Public Key Algorithm: rsaEncryption
            RSA Public Key: (512 bit)
                Modulus (512 bit):
                    00:c6:7b:c0:68:81:2f:de:82:3f:f9:ac:c3:86:4a:
                    66:b7:ec:d4:f1:f6:64:21:ff:f5:a2:34:42:d0:38:
                    9f:c6:dd:3b:6e:26:65:6a:54:96:dd:d2:7b:eb:36:
                    a2:ae:7e:2a:9e:7e:56:a5:b6:87:9f:15:c7:18:66:
                    7e:16:77:e2:a7
                Exponent: 65537 (0x10001)
    Signature Algorithm: md5WithRSAEncryption
        45:2c:21:86:86:34:0b:ba:8e:95:b4:29:78:6b:fc:80:53:bb:
        cd:68:2f:e1:e5:f7:ae:d0:7f:70:48:16:bb:43:4e:a3:80:11:
        d8:3f:f9:b7:ab:f2:e7:1b:79:c3:02:b7:3e:59:e8:e6:ef:f3:
        c5:04:6d:7f:9a:0c:7e:37:41:e6
-----BEGIN CERTIFICATE-----
MIIB9zCCAaECAQEwDQYJKoZIhvcNAQEEBQAwgYkxCzAJBgNVBAYTAlVTMQ8wDQYD
VQQIEwZPcmVnb24xETAPBgNVBAcTCFBvcnRsYW5kMREwDwYDVQQKEwhzYXd0b290
aDEkMCIGA1UEAxMbd3d3LnNhd3Rvb3RoLWNvbnN1bHRpbmcuY29tMR0wGwYJKoZI
hvcNAQkBFg5pbmZvQHlhc3NsLmNvbTAeFw0wNzEwMTYwMDQyNTZaFw0xMDA3MTIw
MDQyNTZaMIGCMQswCQYDVQQGEwJVUzEPMA0GA1UECBMGT3JlZ29uMREwDwYDVQQH
EwhQb3J0bGFuZDETMBEGA1UEChMKdGFvU29mdERldjEbMBkGA1UEAxMSd3d3LnRh
b3NvZnRkZXYuY29tMR0wGwYJKoZIhvcNAQkBFg5pbmZvQHlhc3NsLmNvbTBcMA0G
CSqGSIb3DQEBAQUAA0sAMEgCQQDGe8BogS/egj/5rMOGSma37NTx9mQh//WiNELQ
OJ/G3TtuJmVqVJbd0nvrNqKufiqeflaltoefFccYZn4Wd+KnAgMBAAEwDQYJKoZI
hvcNAQEEBQADQQBFLCGGhjQLuo6VtCl4a/yAU7vNaC/h5feu0H9wSBa7Q06jgBHY
P/m3q/LnG3nDArc+Wejm7/PFBG1/mgx+N0Hm
-----END CERTIFICATE-----
