Certificate:
    Data:
        Version: 3 (0x2)
        Serial Number:
            d7:2e:d2:01:93:5a:b1:c8
        Signature Algorithm: md5WithRSAEncryption
        Issuer: C=US, ST=Oregon, L=Portland, O=sawtooth, CN=www.sawtooth-consulting.com/emailAddress=info@yassl.com
        Validity
            Not Before: Oct 16 00:35:40 2007 GMT
            Not After : Jul 12 00:35:40 2010 GMT
        Subject: C=US, ST=Oregon, L=Portland, O=sawtooth, CN=www.sawtooth-consulting.com/emailAddress=info@yassl.com
        Subject Public Key Info:
            Public Key Algorithm: rsaEncryption
            RSA Public Key: (512 bit)
                Modulus (512 bit):
                    00:97:30:b9:1a:92:ef:25:4f:ca:4c:11:31:95:1a:
                    e1:c0:10:19:0a:20:b9:37:80:1a:57:38:02:4e:1b:
                    c5:0f:28:4f:da:e3:c9:16:aa:50:bd:4a:fb:b7:71:
                    c7:35:cc:63:81:c1:dd:9d:33:f9:38:16:88:32:a0:
                    aa:56:23:03:a3
                Exponent: 65537 (0x10001)
        X509v3 extensions:
            X509v3 Subject Key Identifier: 
                3B:66:FD:A0:40:C6:F4:E2:70:CF:21:1A:0C:4F:67:FE:B7:4B:42:09
            X509v3 Authority Key Identifier: 
                keyid:3B:66:FD:A0:40:C6:F4:E2:70:CF:21:1A:0C:4F:67:FE:B7:4B:42:09
                DirName:/C=US/ST=Oregon/L=Portland/O=sawtooth/CN=www.sawtooth-consulting.com/emailAddress=info@yassl.com
                serial:D7:2E:D2:01:93:5A:B1:C8

            X509v3 Basic Constraints: 
                CA:TRUE
    Signature Algorithm: md5WithRSAEncryption
        32:28:1b:50:4b:b2:30:02:9c:a5:56:35:2a:ec:4b:b4:fa:45:
        a2:94:75:20:7d:e1:39:48:b0:4f:52:93:c3:61:d5:65:f8:57:
        8c:e4:b0:c3:06:bd:7a:a7:9f:d3:c0:a4:1f:ae:84:de:d4:be:
        dd:07:6d:fc:39:ac:87:13:b5:70
-----BEGIN CERTIFICATE-----
MIIC/zCCAqmgAwIBAgIJANcu0gGTWrHIMA0GCSqGSIb3DQEBBAUAMIGJMQswCQYD
VQQGEwJVUzEPMA0GA1UECBMGT3JlZ29uMREwDwYDVQQHEwhQb3J0bGFuZDERMA8G
A1UEChMIc2F3dG9vdGgxJDAiBgNVBAMTG3d3dy5zYXd0b290aC1jb25zdWx0aW5n
LmNvbTEdMBsGCSqGSIb3DQEJARYOaW5mb0B5YXNzbC5jb20wHhcNMDcxMDE2MDAz
NTQwWhcNMTAwNzEyMDAzNTQwWjCBiTELMAkGA1UEBhMCVVMxDzANBgNVBAgTBk9y
ZWdvbjERMA8GA1UEBxMIUG9ydGxhbmQxETAPBgNVBAoTCHNhd3Rvb3RoMSQwIgYD
VQQDExt3d3cuc2F3dG9vdGgtY29uc3VsdGluZy5jb20xHTAbBgkqhkiG9w0BCQEW
DmluZm9AeWFzc2wuY29tMFwwDQYJKoZIhvcNAQEBBQADSwAwSAJBAJcwuRqS7yVP
ykwRMZUa4cAQGQoguTeAGlc4Ak4bxQ8oT9rjyRaqUL1K+7dxxzXMY4HB3Z0z+TgW
iDKgqlYjA6MCAwEAAaOB8TCB7jAdBgNVHQ4EFgQUO2b9oEDG9OJwzyEaDE9n/rdL
Qgkwgb4GA1UdIwSBtjCBs4AUO2b9oEDG9OJwzyEaDE9n/rdLQgmhgY+kgYwwgYkx
CzAJBgNVBAYTAlVTMQ8wDQYDVQQIEwZPcmVnb24xETAPBgNVBAcTCFBvcnRsYW5k
MREwDwYDVQQKEwhzYXd0b290aDEkMCIGA1UEAxMbd3d3LnNhd3Rvb3RoLWNvbnN1
bHRpbmcuY29tMR0wGwYJKoZIhvcNAQkBFg5pbmZvQHlhc3NsLmNvbYIJANcu0gGT
WrHIMAwGA1UdEwQFMAMBAf8wDQYJKoZIhvcNAQEEBQADQQAyKBtQS7IwApylVjUq
7Eu0+kWilHUgfeE5SLBPUpPDYdVl+FeM5LDDBr16p5/TwKQfroTe1L7dB238OayH
E7Vw
-----END CERTIFICATE-----
